; Function Attrs: nounwind sspstrong uwtable
define internal i64 @enum_grep_v(i64 noundef %0, i64 noundef %1) #0 {
  %3 = tail call i64 @rb_ary_new() #14
  %4 = tail call i64 @rb_imemo_new(i32 noundef 5, i64 noundef 0, i64 noundef 40) #14
  %5 = inttoptr i64 %4 to ptr
  %6 = getelementptr inbounds nuw i8, ptr %5, i64 16
  store i64 %1, ptr %6, align 8, !tbaa !7
  %7 = getelementptr inbounds nuw i8, ptr %5, i64 24
  store i64 %3, ptr %7, align 8, !tbaa !7
  %8 = getelementptr inbounds nuw i8, ptr %5, i64 32
  store i64 0, ptr %8, align 8, !tbaa !22
  %9 = tail call i32 @rb_block_given_p() #14
  %.not.i = icmp eq i32 %9, 0
  br i1 %.not.i, label %10, label %enum_grep0.exit

10:                                               ; preds = %2
  %11 = icmp eq i64 %1, 0
  %12 = and i64 %1, 7
  %13 = icmp ne i64 %12, 0
  %14 = or i1 %11, %13
  br i1 %14, label %rbimpl_RB_TYPE_P_fastpath.exit.thread.i, label %rbimpl_RB_TYPE_P_fastpath.exit.i

rbimpl_RB_TYPE_P_fastpath.exit.i:                 ; preds = %10
  %15 = inttoptr i64 %1 to ptr
  %16 = load i64, ptr %15, align 8, !tbaa !20
  %17 = and i64 %16, 31
  %18 = icmp eq i64 %17, 6
  br i1 %18, label %rb_class_of.exit.i, label %rbimpl_RB_TYPE_P_fastpath.exit.thread.i

rb_class_of.exit.i:                               ; preds = %rbimpl_RB_TYPE_P_fastpath.exit.i
  %19 = getelementptr inbounds nuw i8, ptr %15, i64 8
  %.0.i9.i = load i64, ptr %19, align 8, !tbaa !7
  %20 = tail call i32 @rb_method_basic_definition_p(i64 noundef %.0.i9.i, i64 noundef 141) #14
  %.not8.i = icmp eq i32 %20, 0
  br i1 %.not8.i, label %rbimpl_RB_TYPE_P_fastpath.exit.thread.i, label %enum_grep0.exit, !prof !57

rbimpl_RB_TYPE_P_fastpath.exit.thread.i:          ; preds = %rb_class_of.exit.i, %rbimpl_RB_TYPE_P_fastpath.exit.i, %10
  br label %enum_grep0.exit

enum_grep0.exit:                                  ; preds = %2, %rb_class_of.exit.i, %rbimpl_RB_TYPE_P_fastpath.exit.thread.i
  %.0.i = phi ptr [ @grep_i, %rbimpl_RB_TYPE_P_fastpath.exit.thread.i ], [ @grep_iter_i, %2 ], [ @grep_regexp_i, %rb_class_of.exit.i ]
  %21 = tail call i64 @rb_block_call(i64 noundef %0, i64 noundef 3073, i32 noundef 0, ptr noundef null, ptr noundef nonnull %.0.i, i64 noundef %4) #14
  ret i64 %3
}